target datalayout = "e-m:e-p270:32:32-p271:32:32-p272:64:64-i64:64-i128:128-f80:128-n8:16:32:64-S128"
target triple = "x86_64-pc-linux-gnu"

%struct.SilkContext = type { ptr, i32, i32, i32, i32, i32, i32, i32, i32, [2 x %struct.SilkFrame], [2 x float], [2 x float], i32 }
%struct.SilkFrame = type { i32, i32, [16 x i16], [16 x float], [644 x float], [644 x float], i32, i32 }

; Function Attrs: nounwind uwtable
define internal void @silk_flush_frame(ptr noundef %0) #0 {
  %2 = alloca ptr, align 8
  store ptr %0, ptr %2, align 8, !tbaa !39
  %3 = load ptr, ptr %2, align 8, !tbaa !39
  %4 = getelementptr inbounds nuw %struct.SilkFrame, ptr %3, i32 0, i32 0
  %5 = load i32, ptr %4, align 4, !tbaa !32
  %6 = icmp ne i32 %5, 0
  br i1 %6, label %8, label %7

7:                                                ; preds = %1
  br label %29

8:                                                ; preds = %1
  %9 = load ptr, ptr %2, align 8, !tbaa !39
  %10 = getelementptr inbounds nuw %struct.SilkFrame, ptr %9, i32 0, i32 4
  %11 = getelementptr inbounds [644 x float], ptr %10, i64 0, i64 0
  call void @llvm.memset.p0.i64(ptr align 4 %11, i8 0, i64 2576, i1 false)
  %12 = load ptr, ptr %2, align 8, !tbaa !39
  %13 = getelementptr inbounds nuw %struct.SilkFrame, ptr %12, i32 0, i32 5
  %14 = getelementptr inbounds [644 x float], ptr %13, i64 0, i64 0
  call void @llvm.memset.p0.i64(ptr align 4 %14, i8 0, i64 2576, i1 false)
  %15 = load ptr, ptr %2, align 8, !tbaa !39
  %16 = getelementptr inbounds nuw %struct.SilkFrame, ptr %15, i32 0, i32 3
  %17 = getelementptr inbounds [16 x float], ptr %16, i64 0, i64 0
  call void @llvm.memset.p0.i64(ptr align 4 %17, i8 0, i64 64, i1 false)
  %18 = load ptr, ptr %2, align 8, !tbaa !39
  %19 = getelementptr inbounds nuw %struct.SilkFrame, ptr %18, i32 0, i32 2
  %20 = getelementptr inbounds [16 x i16], ptr %19, i64 0, i64 0
  call void @llvm.memset.p0.i64(ptr align 4 %20, i8 0, i64 32, i1 false)
  %21 = load ptr, ptr %2, align 8, !tbaa !39
  %22 = getelementptr inbounds nuw %struct.SilkFrame, ptr %21, i32 0, i32 1
  store i32 0, ptr %22, align 4, !tbaa !41
  %23 = load ptr, ptr %2, align 8, !tbaa !39
  %24 = getelementptr inbounds nuw %struct.SilkFrame, ptr %23, i32 0, i32 6
  store i32 0, ptr %24, align 4, !tbaa !42
  %25 = load ptr, ptr %2, align 8, !tbaa !39
  %26 = getelementptr inbounds nuw %struct.SilkFrame, ptr %25, i32 0, i32 7
  store i32 0, ptr %26, align 4, !tbaa !43
  %27 = load ptr, ptr %2, align 8, !tbaa !39
  %28 = getelementptr inbounds nuw %struct.SilkFrame, ptr %27, i32 0, i32 0
  store i32 0, ptr %28, align 4, !tbaa !32
  br label %29

29:                                               ; preds = %8, %7
  ret void
}

; Function Attrs: nounwind uwtable
define void @ff_silk_flush(ptr noundef %0) #0 {
  %2 = alloca ptr, align 8
  store ptr %0, ptr %2, align 8, !tbaa !4
  %3 = load ptr, ptr %2, align 8, !tbaa !4
  %4 = getelementptr inbounds nuw %struct.SilkContext, ptr %3, i32 0, i32 9
  %5 = getelementptr inbounds [2 x %struct.SilkFrame], ptr %4, i64 0, i64 0
  call void @silk_flush_frame(ptr noundef %5)
  %6 = load ptr, ptr %2, align 8, !tbaa !4
  %7 = getelementptr inbounds nuw %struct.SilkContext, ptr %6, i32 0, i32 9
  %8 = getelementptr inbounds [2 x %struct.SilkFrame], ptr %7, i64 0, i64 1
  call void @silk_flush_frame(ptr noundef %8)
  %9 = load ptr, ptr %2, align 8, !tbaa !4
  %10 = getelementptr inbounds nuw %struct.SilkContext, ptr %9, i32 0, i32 10
  %11 = getelementptr inbounds [2 x float], ptr %10, i64 0, i64 0
  call void @llvm.memset.p0.i64(ptr align 8 %11, i8 0, i64 8, i1 false)
  ret void
}