; Function Attrs: mustprogress nofree norecurse nosync nounwind willreturn memory(argmem: readwrite) uwtable
define void @ff_silk_flush(ptr noundef captures(none) initializes((10568, 10576)) %0) local_unnamed_addr #4 {
  %2 = getelementptr inbounds nuw i8, ptr %0, i64 40
  %3 = load i32, ptr %2, align 4, !tbaa !16
  %.not.i = icmp eq i32 %3, 0
  br i1 %.not.i, label %silk_flush_frame.exit, label %4

4:                                                ; preds = %1
  tail call void @llvm.memset.p0.i64(ptr noundef nonnull align 4 dereferenceable(5264) %2, i8 0, i64 5264, i1 false)
  br label %silk_flush_frame.exit

silk_flush_frame.exit:                            ; preds = %1, %4
  %5 = getelementptr inbounds nuw i8, ptr %0, i64 5304
  %6 = load i32, ptr %5, align 4, !tbaa !16
  %.not.i3 = icmp eq i32 %6, 0
  br i1 %.not.i3, label %silk_flush_frame.exit4, label %7

7:                                                ; preds = %silk_flush_frame.exit
  tail call void @llvm.memset.p0.i64(ptr noundef nonnull align 4 dereferenceable(5264) %5, i8 0, i64 5264, i1 false)
  br label %silk_flush_frame.exit4

silk_flush_frame.exit4:                           ; preds = %silk_flush_frame.exit, %7
  %8 = getelementptr inbounds nuw i8, ptr %0, i64 10568
  store i64 0, ptr %8, align 8
  ret void
}